Certificate:
    Data:
        Version: 3 (0x2)
        Serial Number: 0 (0x0)
        Signature Algorithm: md5WithRSAEncryption
        Issuer: C=NL, O=NIKHEF, CN=NIKHEF medium-security certification auth
        Validity
            Not Before: Feb 20 11:53:41 2001 GMT
            Not After : Feb 19 11:53:41 2006 GMT
        Subject: C=NL, O=NIKHEF, CN=NIKHEF medium-security certification auth
        Subject Public Key Info:
            Public Key Algorithm: rsaEncryption
            RSA Public Key: (2048 bit)
                Modulus (2048 bit):
                    00:a3:dc:c0:e5:91:32:75:cb:30:2a:00:5d:e1:9c:
                    0f:79:ae:43:44:30:be:e4:7d:d4:ea:76:6d:fb:9b:
                    dd:e1:a1:b6:1f:7b:5d:35:2d:75:fb:db:f4:eb:94:
                    0b:74:29:8e:d7:bf:96:8b:93:3e:da:24:4f:5c:b3:
                    2f:bc:a3:ef:34:c5:d9:ff:4e:51:ea:97:bc:c4:6a:
                    3f:eb:30:d6:c9:96:58:1f:e5:bc:e5:ec:91:e4:74:
                    fb:ea:df:d8:31:0b:15:52:d4:db:2c:2f:ea:64:5b:
                    35:89:35:de:12:cd:20:7c:a6:1c:49:2d:0a:9e:b1:
                    e7:8a:93:4f:cc:25:a3:09:59:5a:1e:c1:b2:25:da:
                    d4:c9:c1:8f:a1:c9:65:30:ce:9a:b3:79:94:c8:cb:
                    c8:82:ba:03:97:6e:d3:43:a6:10:42:ea:a0:f3:2a:
                    01:58:03:60:2a:52:1e:b1:10:55:ab:38:d5:93:d1:
                    fa:9e:2a:9f:20:47:42:e3:eb:d0:89:23:59:bb:33:
                    08:48:62:d3:5f:68:78:cd:73:de:e8:2e:cc:6d:0a:
                    8b:c3:70:49:f4:30:d4:0d:7c:e5:d0:65:e6:86:c5:
                    4d:e6:2f:27:32:cd:48:e1:71:ce:30:ee:c2:98:0a:
                    9e:d5:0f:12:0a:9a:9d:e4:03:8b:ba:3e:65:22:73:
                    22:f5
                Exponent: 65537 (0x10001)
        X509v3 extensions:
            X509v3 Basic Constraints: 
                CA:TRUE
            X509v3 Subject Alternative Name: 
                email:ca@nikhef.nl
            Netscape Comment: 
                NIKHEF medium-security policy at http://www.nikhef.nl/~gridadm/nikhef_ca/medium-policy.html
            Netscape CA Revocation Url: 
                http://www.nikhef.nl/~gridadm/nikhef_ca/medium/cacrl.pem
            X509v3 CRL Distribution Points: 
                URI:http://www.nikhef.nl/~gridadm/nikhef_ca/medium/cacrl.pem

            Netscape CA Policy Url: 
                http://www.nikhef.nl/~gridadm/nikhef_ca/medium-policy.html
    Signature Algorithm: md5WithRSAEncryption
        73:c4:d8:5c:25:57:ba:30:9f:05:dd:f4:bb:f6:78:68:2b:de:
        9c:e0:91:d9:3f:20:94:50:97:89:e7:2e:71:58:9c:06:bf:fb:
        50:5f:9e:cc:f2:7f:b3:09:80:25:c8:2d:32:d7:a6:f5:36:6e:
        dd:64:75:6e:d7:8a:23:58:01:0d:8d:35:3a:77:58:6a:9c:98:
        a9:00:4e:98:32:d3:e3:6d:f2:ba:3f:0a:c3:0e:3a:c4:b1:c5:
        e5:3d:92:f7:27:61:a9:02:d1:48:8b:57:33:61:ee:a6:20:ca:
        88:2f:8c:ee:54:44:c1:8f:02:01:65:80:18:6a:f3:48:ce:18:
        7a:a8:6a:7e:21:59:e7:a9:8d:5c:00:24:40:1c:04:7c:36:06:
        97:35:97:ce:bc:36:72:71:26:27:06:95:7d:15:6f:8b:2a:61:
        50:b7:35:72:5b:38:94:ba:8a:42:f3:9b:45:4b:65:62:08:ce:
        df:71:ac:6d:8a:45:8b:e1:4c:c6:11:e7:2b:0a:b3:b8:fc:e9:
        ce:11:d3:36:21:d0:a2:9c:ce:0b:e5:f9:59:eb:5f:fa:b6:85:
        87:33:c8:d0:c9:fa:f7:4e:e2:47:61:80:ee:f1:ed:fd:85:93:
        f5:1f:6a:e8:79:e4:ac:df:52:e5:97:d4:ce:8a:39:84:c4:ef:
        e4:53:65:6c
-----BEGIN CERTIFICATE-----
MIIElzCCA3+gAwIBAgIBADANBgkqhkiG9w0BAQQFADBSMQswCQYDVQQGEwJOTDEP
MA0GA1UEChMGTklLSEVGMTIwMAYDVQQDEylOSUtIRUYgbWVkaXVtLXNlY3VyaXR5
IGNlcnRpZmljYXRpb24gYXV0aDAeFw0wMTAyMjAxMTUzNDFaFw0wNjAyMTkxMTUz
NDFaMFIxCzAJBgNVBAYTAk5MMQ8wDQYDVQQKEwZOSUtIRUYxMjAwBgNVBAMTKU5J
S0hFRiBtZWRpdW0tc2VjdXJpdHkgY2VydGlmaWNhdGlvbiBhdXRoMIIBIjANBgkq
hkiG9w0BAQEFAAOCAQ8AMIIBCgKCAQEAo9zA5ZEydcswKgBd4ZwPea5DRDC+5H3U
6nZt+5vd4aG2H3tdNS11+9v065QLdCmO17+Wi5M+2iRPXLMvvKPvNMXZ/05R6pe8
xGo/6zDWyZZYH+W85eyR5HT76t/YMQsVUtTbLC/qZFs1iTXeEs0gfKYcSS0KnrHn
ipNPzCWjCVlaHsGyJdrUycGPocllMM6as3mUyMvIgroDl27TQ6YQQuqg8yoBWANg
KlIesRBVqzjVk9H6niqfIEdC4+vQiSNZuzMISGLTX2h4zXPe6C7MbQqLw3BJ9DDU
DXzl0GXmhsVN5i8nMs1I4XHOMO7CmAqe1Q8SCpqd5AOLuj5lInMi9QIDAQABo4IB
djCCAXIwDAYDVR0TBAUwAwEB/zAXBgNVHREEEDAOgQxjYUBuaWtoZWYubmwwagYJ
YIZIAYb4QgENBF0WW05JS0hFRiBtZWRpdW0tc2VjdXJpdHkgcG9saWN5IGF0IGh0
dHA6Ly93d3cubmlraGVmLm5sL35ncmlkYWRtL25pa2hlZl9jYS9tZWRpdW0tcG9s
aWN5Lmh0bWwwRwYJYIZIAYb4QgEEBDoWOGh0dHA6Ly93d3cubmlraGVmLm5sL35n
cmlkYWRtL25pa2hlZl9jYS9tZWRpdW0vY2FjcmwucGVtMEkGA1UdHwRCMEAwPqA8
oDqGOGh0dHA6Ly93d3cubmlraGVmLm5sL35ncmlkYWRtL25pa2hlZl9jYS9tZWRp
dW0vY2FjcmwucGVtMEkGCWCGSAGG+EIBCAQ8FjpodHRwOi8vd3d3Lm5pa2hlZi5u
bC9+Z3JpZGFkbS9uaWtoZWZfY2EvbWVkaXVtLXBvbGljeS5odG1sMA0GCSqGSIb3
DQEBBAUAA4IBAQBzxNhcJVe6MJ8F3fS79nhoK96c4JHZPyCUUJeJ5y5xWJwGv/tQ
X57M8n+zCYAlyC0y16b1Nm7dZHVu14ojWAENjTU6d1hqnJipAE6YMtPjbfK6PwrD
DjrEscXlPZL3J2GpAtFIi1czYe6mIMqIL4zuVETBjwIBZYAYavNIzhh6qGp+IVnn
qY1cACRAHAR8NgaXNZfOvDZycSYnBpV9FW+LKmFQtzVyWziUuopC85tFS2ViCM7f
caxtikWL4UzGEecrCrO4/OnOEdM2IdCinM4L5flZ61/6toWHM8jQyfr3TuJHYYDu
8e39hZP1H2roeeSs31Lll9TOijmExO/kU2Vs
-----END CERTIFICATE-----
