Certificate:
    Data:
        Version: 3 (0x2)
        Serial Number: 1313 (0x521)
        Signature Algorithm: md5WithRSAEncryption
        Issuer: C=US, O=National Center for Supercomputing Applications, CN=Certification Authority
        Validity
            Not Before: May 31 17:37:47 2006 GMT
            Not After : May 30 17:37:47 2008 GMT
        Subject: C=US, O=National Center for Supercomputing Applications, CN=dooley-mac.staff.tacc.utexas.edu
        Subject Public Key Info:
            Public Key Algorithm: rsaEncryption
            RSA Public Key: (2048 bit)
                Modulus (2048 bit):
                    00:c2:01:a9:f3:3c:a6:08:0b:dd:14:5e:28:0c:bd:
                    e9:21:88:e1:a4:14:dc:2b:f6:d1:f5:d2:12:03:7f:
                    d1:28:90:02:d6:dc:b0:52:dd:70:33:c1:b4:e3:85:
                    8f:3f:b9:c0:60:24:47:8c:4a:e9:63:06:c6:c0:29:
                    0e:1a:35:1b:d7:61:80:8a:f3:9b:93:ca:51:4b:67:
                    1f:77:c8:ef:22:06:c7:31:e9:12:20:64:80:7f:08:
                    72:54:14:cf:d8:f1:8b:0d:c0:47:31:1c:5b:4f:02:
                    55:2a:19:4c:6a:3a:9b:a9:f1:46:fc:64:93:6b:44:
                    41:57:9e:09:d8:0d:08:ec:1f:81:54:e2:4a:e8:24:
                    b4:3b:d8:2f:f5:89:f8:83:e4:ed:2e:3a:84:d1:7b:
                    ec:1e:15:1b:a2:33:31:60:fd:dd:75:2f:da:16:6b:
                    1e:dc:c1:58:f4:a0:a8:9a:1b:ef:e4:38:87:96:93:
                    9b:c7:44:4e:6a:45:3b:f6:66:20:19:1c:1a:a2:c9:
                    74:59:a5:1f:a5:58:95:10:c4:5a:c8:af:c5:eb:86:
                    0b:cc:eb:b9:bd:fa:e8:c1:55:2d:6a:63:3d:c0:9a:
                    31:d0:2b:42:dd:0e:92:e8:12:04:d4:48:2b:32:f5:
                    20:f7:db:26:be:1c:06:7c:54:bf:02:c3:81:9f:d7:
                    c9:d9
                Exponent: 65537 (0x10001)
        X509v3 extensions:
            X509v3 Basic Constraints: 
            CA:FALSE
            X509v3 Key Usage: 
            Digital Signature, Non Repudiation, Key Encipherment, Data Encipherment
            X509v3 Subject Key Identifier: 
            70:DC:77:69:F5:72:74:2D:1A:9E:2A:F6:59:FD:73:94:4B:04:8D:AA
            X509v3 Authority Key Identifier: 
            keyid:F2:BE:8D:AA:61:49:11:2D:B9:5B:72:24:2A:18:D2:C2:85:C6:98:81
            DirName:/C=US/O=National Center for Supercomputing Applications/CN=Certification Authority
            serial:00

            X509v3 CRL Distribution Points: 
            URI:http://ca.ncsa.uiuc.edu/4a6cd8b1.r0

    Signature Algorithm: md5WithRSAEncryption
        3d:5b:51:65:70:43:3f:8b:88:b8:d4:ac:9c:c1:4c:c4:2d:4a:
        ec:09:32:6a:06:d7:4f:62:1d:ff:12:52:5b:13:75:8a:26:93:
        fd:6b:ae:f4:da:58:50:04:bb:bb:0c:cd:7e:ee:53:aa:af:62:
        cc:4c:bd:1b:b6:6d:06:53:8e:60:d2:67:fe:6d:d9:bb:ec:ca:
        fa:62:ac:b4:8b:02:07:54:21:2f:eb:3c:ac:82:62:e5:fd:28:
        e8:d6:5e:18:56:d4:44:b3:b8:62:5c:1a:3e:c0:bc:89:a4:c0:
        07:25:f0:89:7f:88:15:96:c6:70:4a:27:56:25:f3:09:ad:37:
        69:56:df:f8:fd:47:d9:dd:9b:31:e5:5f:5f:e8:74:2c:10:8e:
        17:13:77:4d:70:01:08:df:3e:0d:04:df:83:37:33:a4:bb:e6:
        d8:1b:cb:2e:9f:fc:19:e3:1e:ef:76:8b:d9:33:87:aa:95:64:
        03:4a:62:ad:31:29:f7:99:79:1e:05:67:21:12:c6:69:5f:76:
        36:92:dd:ff:10:d6:2c:71:19:01:a3:6c:16:36:7c:cb:47:dc:
        b7:58:8d:0b:9f:43:ec:84:64:a6:20:b7:53:66:5c:cd:f0:80:
        7f:29:83:d5:07:7a:17:4f:be:57:e9:d3:13:41:ce:b2:34:ee:
        65:a7:ab:a8
-----BEGIN CERTIFICATE-----
MIIEYDCCA0igAwIBAgICBSEwDQYJKoZIhvcNAQEEBQAwaTELMAkGA1UEBhMCVVMx
ODA2BgNVBAoTL05hdGlvbmFsIENlbnRlciBmb3IgU3VwZXJjb21wdXRpbmcgQXBw
bGljYXRpb25zMSAwHgYDVQQDExdDZXJ0aWZpY2F0aW9uIEF1dGhvcml0eTAeFw0w
NjA1MzExNzM3NDdaFw0wODA1MzAxNzM3NDdaMHIxCzAJBgNVBAYTAlVTMTgwNgYD
VQQKEy9OYXRpb25hbCBDZW50ZXIgZm9yIFN1cGVyY29tcHV0aW5nIEFwcGxpY2F0
aW9uczEpMCcGA1UEAxMgZG9vbGV5LW1hYy5zdGFmZi50YWNjLnV0ZXhhcy5lZHUw
ggEiMA0GCSqGSIb3DQEBAQUAA4IBDwAwggEKAoIBAQDCAanzPKYIC90UXigMvekh
iOGkFNwr9tH10hIDf9EokALW3LBS3XAzwbTjhY8/ucBgJEeMSuljBsbAKQ4aNRvX
YYCK85uTylFLZx93yO8iBscx6RIgZIB/CHJUFM/Y8YsNwEcxHFtPAlUqGUxqOpup
8Ub8ZJNrREFXngnYDQjsH4FU4kroJLQ72C/1ifiD5O0uOoTRe+weFRuiMzFg/d11
L9oWax7cwVj0oKiaG+/kOIeWk5vHRE5qRTv2ZiAZHBqiyXRZpR+lWJUQxFrIr8Xr
hgvM67m9+ujBVS1qYz3AmjHQK0LdDpLoEgTUSCsy9SD32ya+HAZ8VL8Cw4Gf18nZ
AgMBAAGjggEHMIIBAzAJBgNVHRMEAjAAMAsGA1UdDwQEAwIE8DAdBgNVHQ4EFgQU
cNx3afVydC0anir2Wf1zlEsEjaowgZMGA1UdIwSBizCBiIAU8r6NqmFJES25W3Ik
KhjSwoXGmIGhbaRrMGkxCzAJBgNVBAYTAlVTMTgwNgYDVQQKEy9OYXRpb25hbCBD
ZW50ZXIgZm9yIFN1cGVyY29tcHV0aW5nIEFwcGxpY2F0aW9uczEgMB4GA1UEAxMX
Q2VydGlmaWNhdGlvbiBBdXRob3JpdHmCAQAwNAYDVR0fBC0wKzApoCegJYYjaHR0
cDovL2NhLm5jc2EudWl1Yy5lZHUvNGE2Y2Q4YjEucjAwDQYJKoZIhvcNAQEEBQAD
ggEBAD1bUWVwQz+LiLjUrJzBTMQtSuwJMmoG109iHf8SUlsTdYomk/1rrvTaWFAE
u7sMzX7uU6qvYsxMvRu2bQZTjmDSZ/5t2bvsyvpirLSLAgdUIS/rPKyCYuX9KOjW
XhhW1ESzuGJcGj7AvImkwAcl8Il/iBWWxnBKJ1Yl8wmtN2lW3/j9R9ndmzHlX1/o
dCwQjhcTd01wAQjfPg0E34M3M6S75tgbyy6f/BnjHu92i9kzh6qVZANKYq0xKfeZ
eR4FZyESxmlfdjaS3f8Q1ixxGQGjbBY2fMtH3LdYjQufQ+yEZKYgt1NmXM3wgH8p
g9UHehdPvlfp0xNBzrI07mWnq6g=
-----END CERTIFICATE-----
