Certificate:
    Data:
        Version: 3 (0x2)
        Serial Number: 0 (0x0)
        Signature Algorithm: md5WithRSAEncryption
        Issuer: DC=gov, DC=fnal, O=Fermilab, OU=Certificate Authorities, CN=Kerberized CA
        Validity
            Not Before: Mar 20 18:30:19 2003 GMT
            Not After : Apr 23 18:30:19 2004 GMT
        Subject: DC=gov, DC=fnal, O=Fermilab, OU=Certificate Authorities, CN=Kerberized CA
        Subject Public Key Info:
            Public Key Algorithm: rsaEncryption
            RSA Public Key: (2048 bit)
                Modulus (2048 bit):
                    00:df:93:0b:ee:5e:94:b5:ba:d1:7e:db:54:8f:c5:
                    ef:b9:11:ed:16:68:23:a6:40:1e:03:b6:bd:e6:38:
                    8d:36:e6:bd:d5:71:c1:28:9c:a3:1f:53:af:92:7c:
                    1c:14:d4:0d:5f:7b:2c:bb:7b:ea:4a:6a:cd:ca:a0:
                    72:c2:15:3f:32:b6:4a:62:da:7b:13:ab:42:4e:3e:
                    53:f8:c2:83:73:51:cf:aa:01:89:eb:0e:68:33:96:
                    02:67:2d:b2:1e:8a:a0:9f:8d:a1:c6:78:c8:97:c3:
                    88:2e:ef:4d:c8:f5:19:54:dd:ab:f9:cb:ad:ce:90:
                    58:20:bb:95:c1:22:23:4f:bf:e7:c8:54:1a:6d:36:
                    bf:ac:2e:05:8e:82:9d:19:c7:ba:7d:09:05:04:39:
                    b2:e2:43:6f:4e:e7:1a:9b:2d:57:f5:fd:01:39:92:
                    94:3f:cc:54:a4:69:53:1f:46:88:34:88:c9:8d:92:
                    7b:65:37:8f:ba:11:6d:c9:90:28:b9:c7:ae:ab:a4:
                    7d:4f:d8:c2:f2:26:03:ad:ab:a3:5b:b2:de:2d:61:
                    7f:7c:55:25:43:0b:a9:36:7b:ba:54:6d:05:d1:a0:
                    a5:53:3c:e4:5d:18:f2:5f:47:ee:76:17:35:77:8b:
                    0b:05:47:9f:f9:e9:fe:ac:36:0a:fb:d8:7d:0a:e7:
                    d6:6b
                Exponent: 65537 (0x10001)
        X509v3 extensions:
            X509v3 Basic Constraints: 
                CA:TRUE, pathlen:0
            X509v3 Authority Key Identifier: 
                keyid:12:53:D0:9D:4C:D6:9E:BE:20:5A:2C:17:16:CE:32:E0:D5:76:6C:D8

            X509v3 Subject Key Identifier: 
                12:53:D0:9D:4C:D6:9E:BE:20:5A:2C:17:16:CE:32:E0:D5:76:6C:D8
            X509v3 Key Usage: critical
                Digital Signature, Certificate Sign, CRL Sign
            X509v3 Certificate Policies: 
                Policy: 1.3.6.1.4.14147.1.5.1
                  CPS: http://computing.fnal.gov/security/docs/FNAL-CP-CPS.pdf
                  User Notice:
                    Organization: Fermilab
                    Number: 1
                    Explicit Text: Fermilab KCA Certificate Policy

    Signature Algorithm: md5WithRSAEncryption
        bd:6a:a5:6b:99:5e:2b:1e:3f:0e:75:3f:01:ce:f9:c9:13:3b:
        4a:9e:b2:5d:b7:f4:91:32:03:4c:48:0b:c3:24:72:d5:c7:35:
        a3:cc:87:ce:97:c7:8d:9e:12:48:d7:b0:72:5a:91:cb:04:99:
        f3:b8:6a:f4:fd:b2:ca:2f:b7:4f:38:ce:b1:ca:bd:3c:d8:21:
        7b:b0:c3:2a:41:5c:01:f4:84:e3:94:82:eb:25:e5:02:a9:c9:
        0f:0d:22:8b:35:ef:d8:f2:02:5e:1b:53:43:9a:73:96:d7:e1:
        b1:71:a5:fb:3f:e0:fc:35:ea:eb:82:fd:b2:0c:be:64:5b:64:
        5e:d2:91:f0:4d:5d:19:e3:34:c1:61:b9:e5:47:a0:be:34:1c:
        7c:ca:21:78:2c:be:a3:27:1f:95:e3:89:88:70:4f:85:4a:48:
        d7:6a:bf:b4:5d:20:76:52:32:3e:50:f2:69:4b:d4:23:4d:09:
        4e:8d:d4:e8:7a:6c:95:cd:7f:4e:44:a3:bb:38:3c:bf:65:ed:
        1a:50:d1:81:af:c9:ef:bf:2c:0c:25:24:8e:c8:ad:3a:19:d6:
        bd:f6:76:64:78:36:b6:41:13:c3:a6:9c:b6:fc:5b:6e:c4:34:
        8b:42:fa:cc:f4:b6:03:7f:5c:85:a1:a1:c5:99:a2:5f:74:9b:
        da:a6:d6:b1
-----BEGIN CERTIFICATE-----
MIIEdjCCA16gAwIBAgIBADANBgkqhkiG9w0BAQQFADB4MRMwEQYKCZImiZPyLGQB
GRMDZ292MRQwEgYKCZImiZPyLGQBGRMEZm5hbDERMA8GA1UEChMIRmVybWlsYWIx
IDAeBgNVBAsTF0NlcnRpZmljYXRlIEF1dGhvcml0aWVzMRYwFAYDVQQDEw1LZXJi
ZXJpemVkIENBMB4XDTAzMDMyMDE4MzAxOVoXDTA0MDQyMzE4MzAxOVoweDETMBEG
CgmSJomT8ixkARkTA2dvdjEUMBIGCgmSJomT8ixkARkTBGZuYWwxETAPBgNVBAoT
CEZlcm1pbGFiMSAwHgYDVQQLExdDZXJ0aWZpY2F0ZSBBdXRob3JpdGllczEWMBQG
A1UEAxMNS2VyYmVyaXplZCBDQTCCASIwDQYJKoZIhvcNAQEBBQADggEPADCCAQoC
ggEBAN+TC+5elLW60X7bVI/F77kR7RZoI6ZAHgO2veY4jTbmvdVxwSicox9Tr5J8
HBTUDV97LLt76kpqzcqgcsIVPzK2SmLaexOrQk4+U/jCg3NRz6oBiesOaDOWAmct
sh6KoJ+NocZ4yJfDiC7vTcj1GVTdq/nLrc6QWCC7lcEiI0+/58hUGm02v6wuBY6C
nRnHun0JBQQ5suJDb07nGpstV/X9ATmSlD/MVKRpUx9GiDSIyY2Se2U3j7oRbcmQ
KLnHrqukfU/YwvImA62ro1uy3i1hf3xVJUMLqTZ7ulRtBdGgpVM85F0Y8l9H7nYX
NXeLCwVHn/np/qw2CvvYfQrn1msCAwEAAaOCAQkwggEFMA8GA1UdEwQIMAYBAf8C
AQAwHwYDVR0jBBgwFoAUElPQnUzWnr4gWiwXFs4y4NV2bNgwHQYDVR0OBBYEFBJT
0J1M1p6+IFosFxbOMuDVdmzYMA4GA1UdDwEB/wQEAwIBhjCBoQYDVR0gBIGZMIGW
MIGTBgkrBgEE7kMBBQEwgYUwQwYIKwYBBQUHAgEWN2h0dHA6Ly9jb21wdXRpbmcu
Zm5hbC5nb3Yvc2VjdXJpdHkvZG9jcy9GTkFMLUNQLUNQUy5wZGYwPgYIKwYBBQUH
AgIwMjAPFghGZXJtaWxhYjADAgEBGh9GZXJtaWxhYiBLQ0EgQ2VydGlmaWNhdGUg
UG9saWN5MA0GCSqGSIb3DQEBBAUAA4IBAQC9aqVrmV4rHj8OdT8BzvnJEztKnrJd
t/SRMgNMSAvDJHLVxzWjzIfOl8eNnhJI17ByWpHLBJnzuGr0/bLKL7dPOM6xyr08
2CF7sMMqQVwB9ITjlILrJeUCqckPDSKLNe/Y8gJeG1NDmnOW1+GxcaX7P+D8Nerr
gv2yDL5kW2Re0pHwTV0Z4zTBYbnlR6C+NBx8yiF4LL6jJx+V44mIcE+FSkjXar+0
XSB2UjI+UPJpS9QjTQlOjdToemyVzX9ORKO7ODy/Ze0aUNGBr8nvvywMJSSOyK06
Gda99nZkeDa2QRPDppy2/FtuxDSLQvrM9LYDf1yFoaHFmaJfdJvaptax
-----END CERTIFICATE-----
